; Function Attrs: mustprogress uwtable
define void @_ZN8proxygen16QPACKHeaderTable11resizeTableEj(ptr noundef nonnull align 8 dereferenceable(104) %this, i32 noundef %newLength) unnamed_addr #3 align 2 personality ptr @__gxx_personality_v0 {
entry:
  tail call void @_ZN8proxygen11HeaderTable11resizeTableEj(ptr noundef nonnull align 8 dereferenceable(80) %this, i32 noundef %newLength)
  %refCount_ = getelementptr inbounds i8, ptr %this, i64 96
  %0 = load ptr, ptr %refCount_, align 8
  %cmp.i.not = icmp eq ptr %0, null
  br i1 %cmp.i.not, label %if.end, label %if.then

if.then:                                          ; preds = %entry
  %conv = zext i32 %newLength to i64
  %_M_finish.i.i = getelementptr inbounds i8, ptr %0, i64 8
  %1 = load ptr, ptr %_M_finish.i.i, align 8
  %2 = load ptr, ptr %0, align 8
  %sub.ptr.lhs.cast.i.i = ptrtoint ptr %1 to i64
  %sub.ptr.rhs.cast.i.i = ptrtoint ptr %2 to i64
  %sub.ptr.sub.i.i = sub i64 %sub.ptr.lhs.cast.i.i, %sub.ptr.rhs.cast.i.i
  %sub.ptr.div.i.i = ashr exact i64 %sub.ptr.sub.i.i, 1
  %cmp.i2 = icmp ult i64 %sub.ptr.div.i.i, %conv
  br i1 %cmp.i2, label %if.then.i, label %if.else.i

if.then.i:                                        ; preds = %if.then
  %sub.i = sub nsw i64 %conv, %sub.ptr.div.i.i
  tail call void @_ZNSt6vectorItSaItEE17_M_default_appendEm(ptr noundef nonnull align 8 dereferenceable(24) %0, i64 noundef %sub.i)
  br label %if.end

if.else.i:                                        ; preds = %if.then
  %cmp4.i = icmp ugt i64 %sub.ptr.div.i.i, %conv
  br i1 %cmp4.i, label %if.then5.i, label %if.end

if.then5.i:                                       ; preds = %if.else.i
  %add.ptr.i = getelementptr inbounds i16, ptr %2, i64 %conv
  %tobool.not.i.i = icmp eq ptr %1, %add.ptr.i
  br i1 %tobool.not.i.i, label %if.end, label %invoke.cont.i.i

invoke.cont.i.i:                                  ; preds = %if.then5.i
  store ptr %add.ptr.i, ptr %_M_finish.i.i, align 8
  br label %if.end

if.end:                                           ; preds = %invoke.cont.i.i, %if.then5.i, %if.else.i, %if.then.i, %entry
  ret void
}